target datalayout = "e-m:e-p270:32:32-p271:32:32-p272:64:64-i64:64-i128:128-f80:128-n8:16:32:64-S128"
target triple = "x86_64-pc-linux-gnu"

%struct.SN_env = type { ptr, i32, i32, i32, i32, i32, ptr, ptr }

; Function Attrs: nounwind uwtable
define internal i32 @r_R2(ptr noundef %0) #0 {
  %2 = alloca i32, align 4
  %3 = alloca ptr, align 8
  store ptr %0, ptr %3, align 8
  %4 = load ptr, ptr %3, align 8
  %5 = getelementptr inbounds nuw %struct.SN_env, ptr %4, i32 0, i32 7
  %6 = load ptr, ptr %5, align 8
  %7 = getelementptr inbounds i32, ptr %6, i64 0
  %8 = load i32, ptr %7, align 4
  %9 = load ptr, ptr %3, align 8
  %10 = getelementptr inbounds nuw %struct.SN_env, ptr %9, i32 0, i32 1
  %11 = load i32, ptr %10, align 8
  %12 = icmp sle i32 %8, %11
  br i1 %12, label %14, label %13

13:                                               ; preds = %1
  store i32 0, ptr %2, align 4
  br label %15

14:                                               ; preds = %1
  store i32 1, ptr %2, align 4
  br label %15

15:                                               ; preds = %14, %13
  %16 = load i32, ptr %2, align 4
  ret i32 %16
}

; Function Attrs: nounwind uwtable
define internal i32 @r_Step_4(ptr noundef %0) #0 {
  %2 = alloca i32, align 4
  %3 = alloca ptr, align 8
  %4 = alloca i32, align 4
  %5 = alloca i32, align 4
  %6 = alloca i32, align 4
  %7 = alloca i32, align 4
  %8 = alloca i32, align 4
  %9 = alloca i32, align 4
  store ptr %0, ptr %3, align 8
  call void @llvm.lifetime.start.p0(i64 4, ptr %4) #3
  %10 = load ptr, ptr %3, align 8
  %11 = getelementptr inbounds nuw %struct.SN_env, ptr %10, i32 0, i32 1
  %12 = load i32, ptr %11, align 8
  %13 = load ptr, ptr %3, align 8
  %14 = getelementptr inbounds nuw %struct.SN_env, ptr %13, i32 0, i32 5
  store i32 %12, ptr %14, align 8
  %15 = load ptr, ptr %3, align 8
  %16 = getelementptr inbounds nuw %struct.SN_env, ptr %15, i32 0, i32 1
  %17 = load i32, ptr %16, align 8
  %18 = sub i32 %17, 1
  %19 = load ptr, ptr %3, align 8
  %20 = getelementptr inbounds nuw %struct.SN_env, ptr %19, i32 0, i32 3
  %21 = load i32, ptr %20, align 8
  %22 = icmp sle i32 %18, %21
  br i1 %22, label %53, label %23

23:                                               ; preds = %1
  %24 = load ptr, ptr %3, align 8
  %25 = getelementptr inbounds nuw %struct.SN_env, ptr %24, i32 0, i32 0
  %26 = load ptr, ptr %25, align 8
  %27 = load ptr, ptr %3, align 8
  %28 = getelementptr inbounds nuw %struct.SN_env, ptr %27, i32 0, i32 1
  %29 = load i32, ptr %28, align 8
  %30 = sub i32 %29, 1
  %31 = sext i32 %30 to i64
  %32 = getelementptr inbounds i8, ptr %26, i64 %31
  %33 = load i8, ptr %32, align 1
  %34 = zext i8 %33 to i32
  %35 = ashr i32 %34, 5
  %36 = icmp ne i32 %35, 3
  br i1 %36, label %53, label %37

37:                                               ; preds = %23
  %38 = load ptr, ptr %3, align 8
  %39 = getelementptr inbounds nuw %struct.SN_env, ptr %38, i32 0, i32 0
  %40 = load ptr, ptr %39, align 8
  %41 = load ptr, ptr %3, align 8
  %42 = getelementptr inbounds nuw %struct.SN_env, ptr %41, i32 0, i32 1
  %43 = load i32, ptr %42, align 8
  %44 = sub i32 %43, 1
  %45 = sext i32 %44 to i64
  %46 = getelementptr inbounds i8, ptr %40, i64 %45
  %47 = load i8, ptr %46, align 1
  %48 = zext i8 %47 to i32
  %49 = and i32 %48, 31
  %50 = ashr i32 1864232, %49
  %51 = and i32 %50, 1
  %52 = icmp ne i32 %51, 0
  br i1 %52, label %54, label %53

53:                                               ; preds = %37, %23, %1
  store i32 0, ptr %2, align 4
  store i32 1, ptr %5, align 4
  br label %171

54:                                               ; preds = %37
  %55 = load ptr, ptr %3, align 8
  %56 = call i32 @find_among_b(ptr noundef %55, ptr noundef @a_7, i32 noundef 18)
  store i32 %56, ptr %4, align 4
  %57 = load i32, ptr %4, align 4
  %58 = icmp ne i32 %57, 0
  br i1 %58, label %60, label %59

59:                                               ; preds = %54
  store i32 0, ptr %2, align 4
  store i32 1, ptr %5, align 4
  br label %171

60:                                               ; preds = %54
  %61 = load ptr, ptr %3, align 8
  %62 = getelementptr inbounds nuw %struct.SN_env, ptr %61, i32 0, i32 1
  %63 = load i32, ptr %62, align 8
  %64 = load ptr, ptr %3, align 8
  %65 = getelementptr inbounds nuw %struct.SN_env, ptr %64, i32 0, i32 4
  store i32 %63, ptr %65, align 4
  call void @llvm.lifetime.start.p0(i64 4, ptr %6) #3
  %66 = load ptr, ptr %3, align 8
  %67 = call i32 @r_R2(ptr noundef %66)
  store i32 %67, ptr %6, align 4
  %68 = load i32, ptr %6, align 4
  %69 = icmp sle i32 %68, 0
  br i1 %69, label %70, label %72

70:                                               ; preds = %60
  %71 = load i32, ptr %6, align 4
  store i32 %71, ptr %2, align 4
  store i32 1, ptr %5, align 4
  br label %73

72:                                               ; preds = %60
  store i32 0, ptr %5, align 4
  br label %73

73:                                               ; preds = %72, %70
  call void @llvm.lifetime.end.p0(i64 4, ptr %6) #3
  %74 = load i32, ptr %5, align 4
  switch i32 %74, label %171 [
    i32 0, label %75
  ]

75:                                               ; preds = %73
  %76 = load i32, ptr %4, align 4
  switch i32 %76, label %170 [
    i32 1, label %77
    i32 2, label %88
  ]

77:                                               ; preds = %75
  call void @llvm.lifetime.start.p0(i64 4, ptr %7) #3
  %78 = load ptr, ptr %3, align 8
  %79 = call i32 @slice_del(ptr noundef %78)
  store i32 %79, ptr %7, align 4
  %80 = load i32, ptr %7, align 4
  %81 = icmp slt i32 %80, 0
  br i1 %81, label %82, label %84

82:                                               ; preds = %77
  %83 = load i32, ptr %7, align 4
  store i32 %83, ptr %2, align 4
  store i32 1, ptr %5, align 4
  br label %85

84:                                               ; preds = %77
  store i32 0, ptr %5, align 4
  br label %85

85:                                               ; preds = %84, %82
  call void @llvm.lifetime.end.p0(i64 4, ptr %7) #3
  %86 = load i32, ptr %5, align 4
  switch i32 %86, label %171 [
    i32 0, label %87
  ]

87:                                               ; preds = %85
  br label %170

88:                                               ; preds = %75
  call void @llvm.lifetime.start.p0(i64 4, ptr %8) #3
  %89 = load ptr, ptr %3, align 8
  %90 = getelementptr inbounds nuw %struct.SN_env, ptr %89, i32 0, i32 2
  %91 = load i32, ptr %90, align 4
  %92 = load ptr, ptr %3, align 8
  %93 = getelementptr inbounds nuw %struct.SN_env, ptr %92, i32 0, i32 1
  %94 = load i32, ptr %93, align 8
  %95 = sub i32 %91, %94
  store i32 %95, ptr %8, align 4
  %96 = load ptr, ptr %3, align 8
  %97 = getelementptr inbounds nuw %struct.SN_env, ptr %96, i32 0, i32 1
  %98 = load i32, ptr %97, align 8
  %99 = load ptr, ptr %3, align 8
  %100 = getelementptr inbounds nuw %struct.SN_env, ptr %99, i32 0, i32 3
  %101 = load i32, ptr %100, align 8
  %102 = icmp sle i32 %98, %101
  br i1 %102, label %116, label %103

103:                                              ; preds = %88
  %104 = load ptr, ptr %3, align 8
  %105 = getelementptr inbounds nuw %struct.SN_env, ptr %104, i32 0, i32 0
  %106 = load ptr, ptr %105, align 8
  %107 = load ptr, ptr %3, align 8
  %108 = getelementptr inbounds nuw %struct.SN_env, ptr %107, i32 0, i32 1
  %109 = load i32, ptr %108, align 8
  %110 = sub i32 %109, 1
  %111 = sext i32 %110 to i64
  %112 = getelementptr inbounds i8, ptr %106, i64 %111
  %113 = load i8, ptr %112, align 1
  %114 = zext i8 %113 to i32
  %115 = icmp ne i32 %114, 115
  br i1 %115, label %116, label %117

116:                                              ; preds = %103, %88
  br label %122

117:                                              ; preds = %103
  %118 = load ptr, ptr %3, align 8
  %119 = getelementptr inbounds nuw %struct.SN_env, ptr %118, i32 0, i32 1
  %120 = load i32, ptr %119, align 8
  %121 = add i32 %120, -1
  store i32 %121, ptr %119, align 8
  store i32 4, ptr %5, align 4
  br label %156

122:                                              ; preds = %116
  %123 = load ptr, ptr %3, align 8
  %124 = getelementptr inbounds nuw %struct.SN_env, ptr %123, i32 0, i32 2
  %125 = load i32, ptr %124, align 4
  %126 = load i32, ptr %8, align 4
  %127 = sub i32 %125, %126
  %128 = load ptr, ptr %3, align 8
  %129 = getelementptr inbounds nuw %struct.SN_env, ptr %128, i32 0, i32 1
  store i32 %127, ptr %129, align 8
  %130 = load ptr, ptr %3, align 8
  %131 = getelementptr inbounds nuw %struct.SN_env, ptr %130, i32 0, i32 1
  %132 = load i32, ptr %131, align 8
  %133 = load ptr, ptr %3, align 8
  %134 = getelementptr inbounds nuw %struct.SN_env, ptr %133, i32 0, i32 3
  %135 = load i32, ptr %134, align 8
  %136 = icmp sle i32 %132, %135
  br i1 %136, label %150, label %137

137:                                              ; preds = %122
  %138 = load ptr, ptr %3, align 8
  %139 = getelementptr inbounds nuw %struct.SN_env, ptr %138, i32 0, i32 0
  %140 = load ptr, ptr %139, align 8
  %141 = load ptr, ptr %3, align 8
  %142 = getelementptr inbounds nuw %struct.SN_env, ptr %141, i32 0, i32 1
  %143 = load i32, ptr %142, align 8
  %144 = sub i32 %143, 1
  %145 = sext i32 %144 to i64
  %146 = getelementptr inbounds i8, ptr %140, i64 %145
  %147 = load i8, ptr %146, align 1
  %148 = zext i8 %147 to i32
  %149 = icmp ne i32 %148, 116
  br i1 %149, label %150, label %151

150:                                              ; preds = %137, %122
  store i32 0, ptr %2, align 4
  store i32 1, ptr %5, align 4
  br label %156

151:                                              ; preds = %137
  %152 = load ptr, ptr %3, align 8
  %153 = getelementptr inbounds nuw %struct.SN_env, ptr %152, i32 0, i32 1
  %154 = load i32, ptr %153, align 8
  %155 = add i32 %154, -1
  store i32 %155, ptr %153, align 8
  store i32 0, ptr %5, align 4
  br label %156

156:                                              ; preds = %117, %151, %150
  call void @llvm.lifetime.end.p0(i64 4, ptr %8) #3
  %157 = load i32, ptr %5, align 4
  switch i32 %157, label %171 [
    i32 0, label %158
    i32 4, label %159
  ]

158:                                              ; preds = %156
  br label %159

159:                                              ; preds = %158, %156
  call void @llvm.lifetime.start.p0(i64 4, ptr %9) #3
  %160 = load ptr, ptr %3, align 8
  %161 = call i32 @slice_del(ptr noundef %160)
  store i32 %161, ptr %9, align 4
  %162 = load i32, ptr %9, align 4
  %163 = icmp slt i32 %162, 0
  br i1 %163, label %164, label %166

164:                                              ; preds = %159
  %165 = load i32, ptr %9, align 4
  store i32 %165, ptr %2, align 4
  store i32 1, ptr %5, align 4
  br label %167

166:                                              ; preds = %159
  store i32 0, ptr %5, align 4
  br label %167

167:                                              ; preds = %166, %164
  call void @llvm.lifetime.end.p0(i64 4, ptr %9) #3
  %168 = load i32, ptr %5, align 4
  switch i32 %168, label %171 [
    i32 0, label %169
  ]

169:                                              ; preds = %167
  br label %170

170:                                              ; preds = %75, %169, %87
  store i32 1, ptr %2, align 4
  store i32 1, ptr %5, align 4
  br label %171

171:                                              ; preds = %170, %167, %156, %85, %73, %59, %53
  call void @llvm.lifetime.end.p0(i64 4, ptr %4) #3
  %172 = load i32, ptr %2, align 4
  ret i32 %172
}